; Function Attrs: mustprogress nounwind uwtable
define internal void @_ZN7doctest12_GLOBAL__N_115ConsoleReporter15test_case_startERKNS_12TestCaseDataE(ptr noundef nonnull align 8 captures(none) dereferenceable(112) initializes((16, 17), (104, 112)) %0, ptr noundef nonnull align 8 dereferenceable(80) %1) unnamed_addr #7 align 2 personality ptr @__gxx_personality_v0 {
  %3 = getelementptr inbounds nuw i8, ptr %0, i64 16
  store i8 0, ptr %3, align 8, !tbaa !695
  %4 = getelementptr inbounds nuw i8, ptr %0, i64 104
  store ptr %1, ptr %4, align 8, !tbaa !696
  %5 = getelementptr inbounds nuw i8, ptr %0, i64 24
  %6 = load ptr, ptr %5, align 8, !tbaa !136
  %7 = getelementptr inbounds nuw i8, ptr %0, i64 32
  %8 = load ptr, ptr %7, align 8, !tbaa !133
  %.not.i.i = icmp eq ptr %8, %6
  br i1 %.not.i.i, label %_ZNSt6vectorIN7doctest16SubcaseSignatureESaIS1_EE5clearEv.exit, label %.lr.ph.i.i.i.i.i

.lr.ph.i.i.i.i.i:                                 ; preds = %2, %_ZSt8_DestroyIN7doctest16SubcaseSignatureEEvPT_.exit.i.i.i.i.i
  %.05.i.i.i.i.i = phi ptr [ %16, %_ZSt8_DestroyIN7doctest16SubcaseSignatureEEvPT_.exit.i.i.i.i.i ], [ %6, %2 ]
  %9 = getelementptr inbounds nuw i8, ptr %.05.i.i.i.i.i, i64 23
  %10 = load i8, ptr %9, align 1, !tbaa !38
  %11 = icmp sgt i8 %10, -1
  br i1 %11, label %_ZSt8_DestroyIN7doctest16SubcaseSignatureEEvPT_.exit.i.i.i.i.i, label %12

12:                                               ; preds = %.lr.ph.i.i.i.i.i
  %13 = load ptr, ptr %.05.i.i.i.i.i, align 8, !tbaa !38
  %14 = icmp eq ptr %13, null
  br i1 %14, label %_ZSt8_DestroyIN7doctest16SubcaseSignatureEEvPT_.exit.i.i.i.i.i, label %15

15:                                               ; preds = %12
  tail call void @_ZdaPv(ptr noundef nonnull %13) #48
  br label %_ZSt8_DestroyIN7doctest16SubcaseSignatureEEvPT_.exit.i.i.i.i.i

_ZSt8_DestroyIN7doctest16SubcaseSignatureEEvPT_.exit.i.i.i.i.i: ; preds = %15, %12, %.lr.ph.i.i.i.i.i
  %16 = getelementptr inbounds nuw i8, ptr %.05.i.i.i.i.i, i64 40
  %.not.i.i.i.i.i = icmp eq ptr %16, %8
  br i1 %.not.i.i.i.i.i, label %_ZSt8_DestroyIPN7doctest16SubcaseSignatureES1_EvT_S3_RSaIT0_E.exit.i.i, label %.lr.ph.i.i.i.i.i, !llvm.loop !193

_ZSt8_DestroyIPN7doctest16SubcaseSignatureES1_EvT_S3_RSaIT0_E.exit.i.i: ; preds = %_ZSt8_DestroyIN7doctest16SubcaseSignatureEEvPT_.exit.i.i.i.i.i
  store ptr %6, ptr %7, align 8, !tbaa !133
  br label %_ZNSt6vectorIN7doctest16SubcaseSignatureESaIS1_EE5clearEv.exit

_ZNSt6vectorIN7doctest16SubcaseSignatureESaIS1_EE5clearEv.exit: ; preds = %2, %_ZSt8_DestroyIPN7doctest16SubcaseSignatureES1_EvT_S3_RSaIT0_E.exit.i.i
  %17 = getelementptr inbounds nuw i8, ptr %0, i64 48
  store i64 0, ptr %17, align 8, !tbaa !697
  ret void
}